target datalayout = "e-m:e-p270:32:32-p271:32:32-p272:64:64-i64:64-i128:128-f80:128-n8:16:32:64-S128"
target triple = "x86_64-unknown-linux-gnu"

%"struct.absl::lts_20230802::from_chars_result" = type { ptr, i32 }

; Function Attrs: mustprogress nounwind uwtable
define linkonce_odr hidden noundef double @_ZNSt14numeric_limitsIdE8infinityEv() #0 comdat align 2 {
entry:
  ret double 0x7FF0000000000000
}

; Function Attrs: mustprogress uwtable
define noundef double @_ZN6google8protobuf2io14NoLocaleStrtodEPKcPPc(ptr noundef %str, ptr noundef %endptr) #1 {
entry:
  %str.addr = alloca ptr, align 8
  %endptr.addr = alloca ptr, align 8
  %ret = alloca double, align 8
  %end = alloca ptr, align 8
  %result = alloca %"struct.absl::lts_20230802::from_chars_result", align 8
  store ptr %str, ptr %str.addr, align 8
  store ptr %endptr, ptr %endptr.addr, align 8
  store double 0.000000e+00, ptr %ret, align 8
  %0 = load ptr, ptr %str.addr, align 8
  %call = call noundef ptr @strchr(ptr noundef %0, i32 noundef 0) #11
  store ptr %call, ptr %end, align 8
  %1 = load ptr, ptr %str.addr, align 8
  %2 = load ptr, ptr %end, align 8
  %call1 = call { ptr, i32 } @_ZN4absl12lts_2023080210from_charsEPKcS2_RdNS0_12chars_formatE(ptr noundef %1, ptr noundef %2, ptr noundef nonnull align 8 dereferenceable(8) %ret, i32 noundef 3)
  %3 = getelementptr inbounds { ptr, i32 }, ptr %result, i32 0, i32 0
  %4 = extractvalue { ptr, i32 } %call1, 0
  store ptr %4, ptr %3, align 8
  %5 = getelementptr inbounds { ptr, i32 }, ptr %result, i32 0, i32 1
  %6 = extractvalue { ptr, i32 } %call1, 1
  store i32 %6, ptr %5, align 8
  %ec = getelementptr inbounds %"struct.absl::lts_20230802::from_chars_result", ptr %result, i32 0, i32 1
  %7 = load i32, ptr %ec, align 8
  %cmp = icmp eq i32 %7, 34
  br i1 %cmp, label %if.then, label %if.end9

if.then:                                          ; preds = %entry
  %8 = load double, ptr %ret, align 8
  %cmp2 = fcmp ogt double %8, 1.000000e+00
  br i1 %cmp2, label %if.then3, label %if.else

if.then3:                                         ; preds = %if.then
  %call4 = call noundef double @_ZNSt14numeric_limitsIdE8infinityEv() #10
  store double %call4, ptr %ret, align 8
  br label %if.end8

if.else:                                          ; preds = %if.then
  %9 = load double, ptr %ret, align 8
  %cmp5 = fcmp olt double %9, -1.000000e+00
  br i1 %cmp5, label %if.then6, label %if.end

if.then6:                                         ; preds = %if.else
  %call7 = call noundef double @_ZNSt14numeric_limitsIdE8infinityEv() #10
  %fneg = fneg double %call7
  store double %fneg, ptr %ret, align 8
  br label %if.end

if.end:                                           ; preds = %if.then6, %if.else
  br label %if.end8

if.end8:                                          ; preds = %if.end, %if.then3
  br label %if.end9

if.end9:                                          ; preds = %if.end8, %entry
  %10 = load ptr, ptr %endptr.addr, align 8
  %tobool = icmp ne ptr %10, null
  br i1 %tobool, label %if.then10, label %if.end11

if.then10:                                        ; preds = %if.end9
  %ptr = getelementptr inbounds %"struct.absl::lts_20230802::from_chars_result", ptr %result, i32 0, i32 0
  %11 = load ptr, ptr %ptr, align 8
  %12 = load ptr, ptr %endptr.addr, align 8
  store ptr %11, ptr %12, align 8
  br label %if.end11

if.end11:                                         ; preds = %if.then10, %if.end9
  %13 = load double, ptr %ret, align 8
  ret double %13
}