; Function Attrs: mustprogress uwtable
define noundef double @_ZN6google8protobuf2io14NoLocaleStrtodEPKcPPc(ptr noundef %str, ptr noundef writeonly %endptr) local_unnamed_addr #1 {
entry:
  %ret = alloca double, align 8
  store double 0.000000e+00, ptr %ret, align 8
  %strlen = tail call i64 @strlen(ptr nonnull dereferenceable(1) %str)
  %strchr = getelementptr inbounds i8, ptr %str, i64 %strlen
  %call1 = call { ptr, i32 } @_ZN4absl12lts_2023080210from_charsEPKcS2_RdNS0_12chars_formatE(ptr noundef nonnull %str, ptr noundef nonnull %strchr, ptr noundef nonnull align 8 dereferenceable(8) %ret, i32 noundef 3)
  %0 = extractvalue { ptr, i32 } %call1, 0
  %1 = extractvalue { ptr, i32 } %call1, 1
  %cmp = icmp eq i32 %1, 34
  br i1 %cmp, label %if.then, label %if.end9

if.then:                                          ; preds = %entry
  %2 = load double, ptr %ret, align 8
  %cmp2 = fcmp ogt double %2, 1.000000e+00
  br i1 %cmp2, label %if.end9.sink.split, label %if.else

if.else:                                          ; preds = %if.then
  %cmp5 = fcmp olt double %2, -1.000000e+00
  br i1 %cmp5, label %if.end9.sink.split, label %if.end9

if.end9.sink.split:                               ; preds = %if.else, %if.then
  %.sink = phi double [ 0x7FF0000000000000, %if.then ], [ 0xFFF0000000000000, %if.else ]
  store double %.sink, ptr %ret, align 8
  br label %if.end9

if.end9:                                          ; preds = %if.end9.sink.split, %if.else, %entry
  %tobool.not = icmp eq ptr %endptr, null
  br i1 %tobool.not, label %if.end11, label %if.then10

if.then10:                                        ; preds = %if.end9
  store ptr %0, ptr %endptr, align 8
  br label %if.end11

if.end11:                                         ; preds = %if.then10, %if.end9
  %3 = load double, ptr %ret, align 8
  ret double %3
}